; Function Attrs: null_pointer_is_valid sspstrong uwtable
define internal fastcc void @decode_Tango_Device_command_list_query(ptr noundef %0, ptr noundef %1, ptr noundef %2, ptr noundef %3, ptr noundef %4, ptr noundef readonly captures(none) %5, i1 noundef zeroext %6) unnamed_addr #0 {
  %8 = getelementptr inbounds nuw i8, ptr %5, i64 7
  %9 = load i8, ptr %8, align 1
  switch i8 %9, label %28 [
    i8 0, label %.loopexit
    i8 1, label %10
  ]

10:                                               ; preds = %7
  %11 = getelementptr inbounds nuw i8, ptr %5, i64 16
  %12 = load i32, ptr %11, align 8
  switch i32 %12, label %26 [
    i32 0, label %13
    i32 1, label %.loopexit
  ]

13:                                               ; preds = %10
  %14 = tail call i32 @get_CDR_ulong(ptr noundef %0, ptr noundef %4, i1 noundef zeroext %6, i32 noundef 12)
  %15 = load i32, ptr @hf_Tango_Device_command_list_query_return_loop, align 4
  %16 = load i32, ptr %4, align 4
  %17 = add i32 %16, -4
  %18 = tail call ptr @proto_tree_add_uint(ptr noundef %2, i32 noundef %15, ptr noundef %0, i32 noundef %17, i32 noundef 4, i32 noundef %14)
  %19 = load i32, ptr %4, align 4
  %20 = load i32, ptr @ett_giop_sequence, align 4
  %21 = tail call ptr @proto_tree_add_subtree(ptr noundef %2, ptr noundef %0, i32 noundef %19, i32 noundef -1, i32 noundef %20, ptr noundef null, ptr noundef nonnull @.str.887)
  %.not = icmp eq i32 %14, 0
  br i1 %.not, label %.loopexit, label %.lr.ph

.lr.ph:                                           ; preds = %13, %.lr.ph
  %.01 = phi i32 [ %25, %.lr.ph ], [ 0, %13 ]
  %22 = load i32, ptr %4, align 4
  %23 = load i32, ptr @ett_giop_struct, align 4
  %24 = tail call ptr @proto_tree_add_subtree(ptr noundef %21, ptr noundef %0, i32 noundef %22, i32 noundef -1, i32 noundef %23, ptr noundef null, ptr noundef nonnull @.str.886)
  tail call fastcc void @decode_Tango_DevCmdInfo_st(ptr noundef %0, ptr noundef %24, ptr noundef %4, i1 noundef zeroext %6)
  %25 = add nuw i32 %.01, 1
  %exitcond.not = icmp eq i32 %25, %14
  br i1 %exitcond.not, label %.loopexit, label %.lr.ph, !llvm.loop !70

26:                                               ; preds = %10
  %27 = tail call ptr (ptr, ptr, ptr, ptr, ...) @expert_add_info_format(ptr noundef %1, ptr noundef %3, ptr noundef nonnull @ei_tango_unknown_exception, ptr noundef nonnull @.str.771, i32 noundef %12)
  br label %.loopexit

28:                                               ; preds = %7
  %29 = zext i8 %9 to i32
  %30 = tail call ptr (ptr, ptr, ptr, ptr, ...) @expert_add_info_format(ptr noundef %1, ptr noundef %3, ptr noundef nonnull @ei_tango_unknown_giop_msg, ptr noundef nonnull @.str.772, i32 noundef %29)
  br label %.loopexit

.loopexit:                                        ; preds = %.lr.ph, %13, %10, %26, %28, %7
  ret void
}